; Function Attrs: mustprogress nofree norecurse nosync nounwind willreturn memory(argmem: write) uwtable
define void @_ZN6icu_7712DateTimeRuleC2EiiiiNS0_12TimeRuleTypeE(ptr noundef nonnull writeonly align 8 captures(none) dereferenceable(36) initializes((0, 36)) %0, i32 noundef %1, i32 noundef %2, i32 noundef %3, i32 noundef %4, i32 noundef %5) unnamed_addr #1 align 2 {
  store ptr getelementptr inbounds nuw inrange(-16, 24) (i8, ptr @_ZTVN6icu_7712DateTimeRuleE, i64 16), ptr %0, align 8, !tbaa !3
  %7 = getelementptr inbounds nuw i8, ptr %0, i64 8
  store i32 %1, ptr %7, align 8, !tbaa !6
  %8 = getelementptr inbounds nuw i8, ptr %0, i64 12
  store i32 0, ptr %8, align 4, !tbaa !13
  %9 = getelementptr inbounds nuw i8, ptr %0, i64 16
  store i32 %3, ptr %9, align 8, !tbaa !14
  %10 = getelementptr inbounds nuw i8, ptr %0, i64 20
  store i32 %2, ptr %10, align 4, !tbaa !15
  %11 = getelementptr inbounds nuw i8, ptr %0, i64 24
  store i32 %4, ptr %11, align 8, !tbaa !16
  %12 = getelementptr inbounds nuw i8, ptr %0, i64 28
  store i32 1, ptr %12, align 4, !tbaa !17
  %13 = getelementptr inbounds nuw i8, ptr %0, i64 32
  store i32 %5, ptr %13, align 8, !tbaa !18
  ret void
}